; Function Attrs: mustprogress uwtable
define internal void @"_ZNSt17_Function_handlerIFvRSoPvEZN3sls10euf_plugin17start_propagationEvE3$_0E9_M_invokeERKSt9_Any_dataS0_OS1_"(ptr nonnull readnone align 8 captures(none) %0, ptr noundef nonnull align 8 dereferenceable(8) %1, ptr noundef nonnull readonly align 8 captures(none) dereferenceable(8) %2) #3 align 2 {
  %.val = load ptr, ptr %2, align 8, !tbaa !64
  %4 = tail call noundef nonnull align 8 dereferenceable(8) ptr @_ZSt16__ostream_insertIcSt11char_traitsIcEERSt13basic_ostreamIT_T0_ES6_PKS3_l(ptr noundef nonnull align 8 dereferenceable(8) %1, ptr noundef nonnull @.str.19, i64 noundef 4)
  %5 = ptrtoint ptr %.val to i64
  %6 = lshr i64 %5, 4
  %7 = trunc i64 %6 to i32
  %8 = icmp eq i32 %7, -2
  br i1 %8, label %9, label %11

9:                                                ; preds = %3
  %10 = tail call noundef nonnull align 8 dereferenceable(8) ptr @_ZSt16__ostream_insertIcSt11char_traitsIcEERSt13basic_ostreamIT_T0_ES6_PKS3_l(ptr noundef nonnull align 8 dereferenceable(8) %1, ptr noundef nonnull @.str.14, i64 noundef 4)
  br label %"_ZSt10__invoke_rIvRZN3sls10euf_plugin17start_propagationEvE3$_0JRSoPvEENSt9enable_ifIX16is_invocable_r_vIT_T0_DpT1_EES7_E4typeEOS8_DpOS9_.exit"

11:                                               ; preds = %3
  %12 = and i32 %7, 1
  %.not.not.i.i.i.i = icmp eq i32 %12, 0
  %13 = select i1 %.not.not.i.i.i.i, ptr @.str.4, ptr @.str.15
  %14 = and i64 %6, 1
  %15 = tail call noundef nonnull align 8 dereferenceable(8) ptr @_ZSt16__ostream_insertIcSt11char_traitsIcEERSt13basic_ostreamIT_T0_ES6_PKS3_l(ptr noundef nonnull align 8 dereferenceable(8) %1, ptr noundef nonnull %13, i64 noundef %14)
  %16 = lshr i64 %5, 5
  %17 = and i64 %16, 2147483647
  %18 = tail call noundef nonnull align 8 dereferenceable(8) ptr @_ZNSo9_M_insertImEERSoT_(ptr noundef nonnull align 8 dereferenceable(8) %1, i64 noundef %17)
  br label %"_ZSt10__invoke_rIvRZN3sls10euf_plugin17start_propagationEvE3$_0JRSoPvEENSt9enable_ifIX16is_invocable_r_vIT_T0_DpT1_EES7_E4typeEOS8_DpOS9_.exit"

"_ZSt10__invoke_rIvRZN3sls10euf_plugin17start_propagationEvE3$_0JRSoPvEENSt9enable_ifIX16is_invocable_r_vIT_T0_DpT1_EES7_E4typeEOS8_DpOS9_.exit": ; preds = %9, %11
  ret void
}